target datalayout = "e-m:e-p270:32:32-p271:32:32-p272:64:64-i64:64-i128:128-f80:128-n8:16:32:64-S128"
target triple = "x86_64-pc-linux-gnu"

%struct.mi_memid_s = type { %union.anon, i8, i8, i8, i32 }
%union.anon = type { %struct.mi_memid_os_info }
%struct.mi_memid_os_info = type { ptr, i64 }
%struct.mi_arena_s = type { i32, %struct.mi_memid_s, ptr, i64, i64, i64, %struct.mi_memid_s, i32, i8, i8, %union.pthread_mutex_t, i64, i64, ptr, ptr, ptr, ptr, [1 x i64] }
%union.pthread_mutex_t = type { %struct.__pthread_mutex_s }
%struct.__pthread_mutex_s = type { i32, i32, i32, i32, i32, i16, i16, %struct.__pthread_internal_list }
%struct.__pthread_internal_list = type { ptr, ptr }

@mi_arenas = internal global [132 x ptr] zeroinitializer, align 64

; Function Attrs: nounwind uwtable
define internal i64 @mi_arena_block_size(i64 noundef %0) #0 {
  %2 = alloca i64, align 8
  store i64 %0, ptr %2, align 8, !tbaa !15
  %3 = load i64, ptr %2, align 8, !tbaa !15
  %4 = mul i64 %3, 4194304
  ret i64 %4
}

; Function Attrs: nounwind uwtable
define hidden i64 @mi_arena_id_index(i32 noundef %0) #0 {
  %2 = alloca i32, align 4
  store i32 %0, ptr %2, align 4, !tbaa !52
  %3 = load i32, ptr %2, align 4, !tbaa !52
  %4 = icmp sle i32 %3, 0
  br i1 %4, label %5, label %6

5:                                                ; preds = %1
  br label %9

6:                                                ; preds = %1
  %7 = load i32, ptr %2, align 4, !tbaa !52
  %8 = sub nsw i32 %7, 1
  br label %9

9:                                                ; preds = %6, %5
  %10 = phi i32 [ 132, %5 ], [ %8, %6 ]
  %11 = sext i32 %10 to i64
  ret i64 %11
}

; Function Attrs: nounwind uwtable
define hidden ptr @mi_arena_area(i32 noundef %0, ptr noundef %1) #0 {
  %3 = alloca ptr, align 8
  %4 = alloca i32, align 4
  %5 = alloca ptr, align 8
  %6 = alloca i64, align 8
  %7 = alloca i32, align 4
  %8 = alloca ptr, align 8
  %9 = alloca ptr, align 8
  store i32 %0, ptr %4, align 4, !tbaa !52
  store ptr %1, ptr %5, align 8, !tbaa !31
  %10 = load ptr, ptr %5, align 8, !tbaa !31
  %11 = icmp ne ptr %10, null
  br i1 %11, label %12, label %14

12:                                               ; preds = %2
  %13 = load ptr, ptr %5, align 8, !tbaa !31
  store i64 0, ptr %13, align 8, !tbaa !15
  br label %14

14:                                               ; preds = %12, %2
  call void @llvm.lifetime.start.p0(i64 8, ptr %6) #13
  %15 = load i32, ptr %4, align 4, !tbaa !52
  %16 = call i64 @mi_arena_id_index(i32 noundef %15) #12
  store i64 %16, ptr %6, align 8, !tbaa !15
  %17 = load i64, ptr %6, align 8, !tbaa !15
  %18 = icmp uge i64 %17, 132
  br i1 %18, label %19, label %20

19:                                               ; preds = %14
  store ptr null, ptr %3, align 8
  store i32 1, ptr %7, align 4
  br label %42

20:                                               ; preds = %14
  call void @llvm.lifetime.start.p0(i64 8, ptr %8) #13
  %21 = load i64, ptr %6, align 8, !tbaa !15
  %22 = getelementptr inbounds nuw [132 x ptr], ptr @mi_arenas, i64 0, i64 %21
  %23 = load atomic i64, ptr %22 acquire, align 8
  store i64 %23, ptr %9, align 8
  %24 = load ptr, ptr %9, align 8, !tbaa !16
  store ptr %24, ptr %8, align 8, !tbaa !16
  %25 = load ptr, ptr %8, align 8, !tbaa !16
  %26 = icmp eq ptr %25, null
  br i1 %26, label %27, label %28

27:                                               ; preds = %20
  store ptr null, ptr %3, align 8
  store i32 1, ptr %7, align 4
  br label %41

28:                                               ; preds = %20
  %29 = load ptr, ptr %5, align 8, !tbaa !31
  %30 = icmp ne ptr %29, null
  br i1 %30, label %31, label %37

31:                                               ; preds = %28
  %32 = load ptr, ptr %8, align 8, !tbaa !16
  %33 = getelementptr inbounds nuw %struct.mi_arena_s, ptr %32, i32 0, i32 3
  %34 = load i64, ptr %33, align 8, !tbaa !75
  %35 = call i64 @mi_arena_block_size(i64 noundef %34) #12
  %36 = load ptr, ptr %5, align 8, !tbaa !31
  store i64 %35, ptr %36, align 8, !tbaa !15
  br label %37

37:                                               ; preds = %31, %28
  %38 = load ptr, ptr %8, align 8, !tbaa !16
  %39 = getelementptr inbounds nuw %struct.mi_arena_s, ptr %38, i32 0, i32 2
  %40 = load atomic ptr, ptr %39 seq_cst, align 8, !tbaa !66
  store ptr %40, ptr %3, align 8
  store i32 1, ptr %7, align 4
  br label %41

41:                                               ; preds = %37, %27
  call void @llvm.lifetime.end.p0(i64 8, ptr %8) #13
  br label %42

42:                                               ; preds = %41, %19
  call void @llvm.lifetime.end.p0(i64 8, ptr %6) #13
  %43 = load ptr, ptr %3, align 8
  ret ptr %43
}