; Function Attrs: mustprogress nofree norecurse nounwind willreturn memory(readwrite, inaccessiblemem: none) uwtable
define hidden ptr @mi_arena_area(i32 noundef %0, ptr noundef writeonly captures(address_is_null) %1) local_unnamed_addr #11 {
  %.not = icmp eq ptr %1, null
  br i1 %.not, label %4, label %3

3:                                                ; preds = %2
  store i64 0, ptr %1, align 8, !tbaa !25
  br label %4

4:                                                ; preds = %3, %2
  %5 = icmp slt i32 %0, 1
  %6 = add nsw i32 %0, -1
  %7 = select i1 %5, i32 132, i32 %6
  %8 = icmp samesign ugt i32 %7, 131
  br i1 %8, label %23, label %9

9:                                                ; preds = %4
  %10 = zext nneg i32 %7 to i64
  %11 = getelementptr inbounds nuw [132 x ptr], ptr @mi_arenas, i64 0, i64 %10
  %12 = load atomic i64, ptr %11 acquire, align 8
  %13 = inttoptr i64 %12 to ptr
  %14 = icmp eq i64 %12, 0
  br i1 %14, label %23, label %15

15:                                               ; preds = %9
  br i1 %.not, label %20, label %16

16:                                               ; preds = %15
  %17 = getelementptr inbounds nuw i8, ptr %13, i64 40
  %18 = load i64, ptr %17, align 8, !tbaa !56
  %19 = shl i64 %18, 22
  store i64 %19, ptr %1, align 8, !tbaa !25
  br label %20

20:                                               ; preds = %16, %15
  %21 = getelementptr inbounds nuw i8, ptr %13, i64 32
  %22 = load atomic ptr, ptr %21 seq_cst, align 8, !tbaa !49
  br label %23

23:                                               ; preds = %20, %9, %4
  %.0 = phi ptr [ null, %4 ], [ %22, %20 ], [ null, %9 ]
  ret ptr %.0
}